; Function Attrs: nounwind uwtable
define i32 @Scl_LibertyReadDeriveStrength(ptr noundef readonly captures(none) %0, ptr noundef readonly captures(none) %1) local_unnamed_addr #4 {
  %3 = getelementptr inbounds nuw i8, ptr %1, i64 36
  %4 = load i32, ptr %3, align 4
  %5 = icmp slt i32 %4, 0
  br i1 %5, label %.loopexit, label %Scl_LibertyItem.exit

Scl_LibertyItem.exit:                             ; preds = %2
  %6 = getelementptr inbounds nuw i8, ptr %0, i64 40
  %7 = load ptr, ptr %6, align 8
  %.not15 = icmp eq ptr %7, null
  br i1 %.not15, label %.loopexit, label %.lr.ph

.lr.ph:                                           ; preds = %Scl_LibertyItem.exit
  %8 = zext nneg i32 %4 to i64
  %9 = getelementptr inbounds nuw %struct.Scl_Item_t_, ptr %7, i64 %8
  %10 = getelementptr i8, ptr %0, i64 8
  %.val = load ptr, ptr %10, align 8
  %11 = getelementptr inbounds nuw i8, ptr %0, i64 40
  br label %12

12:                                               ; preds = %.lr.ph, %Scl_LibertyItem.exit11
  %.016 = phi ptr [ %9, %.lr.ph ], [ %30, %Scl_LibertyItem.exit11 ]
  %13 = getelementptr inbounds nuw i8, ptr %.016, i64 8
  %14 = load i64, ptr %13, align 4
  %.sroa.0.0.extract.trunc.i = trunc i64 %14 to i32
  %.sroa.4.0.extract.shift.i = lshr i64 %14, 32
  %.sroa.4.0.extract.trunc.i = trunc nuw i64 %.sroa.4.0.extract.shift.i to i32
  %sext.i = shl i64 %14, 32
  %15 = ashr exact i64 %sext.i, 32
  %16 = getelementptr inbounds i8, ptr %.val, i64 %15
  %17 = sub nsw i32 %.sroa.4.0.extract.trunc.i, %.sroa.0.0.extract.trunc.i
  %18 = sext i32 %17 to i64
  %19 = tail call i32 @strncmp(ptr noundef readonly %16, ptr noundef nonnull @.str.69, i64 noundef %18) #30
  %.not.i = icmp eq i32 %19, 0
  %.not13 = icmp eq i32 %17, 14
  %or.cond = and i1 %.not.i, %.not13
  br i1 %or.cond, label %20, label %Scl_LibertyCompare.exit.thread

20:                                               ; preds = %12
  %21 = getelementptr inbounds nuw i8, ptr %.016, i64 16
  %22 = load i64, ptr %21, align 4
  %23 = tail call ptr @Scl_LibertyReadString(ptr noundef nonnull %0, i64 %22)
  %24 = tail call i32 @atoi(ptr noundef %23) #30
  br label %.loopexit

Scl_LibertyCompare.exit.thread:                   ; preds = %12
  %25 = getelementptr inbounds nuw i8, ptr %.016, i64 32
  %26 = load i32, ptr %25, align 4
  %27 = icmp slt i32 %26, 0
  br i1 %27, label %.loopexit, label %Scl_LibertyItem.exit11

Scl_LibertyItem.exit11:                           ; preds = %Scl_LibertyCompare.exit.thread
  %28 = load ptr, ptr %11, align 8
  %29 = zext nneg i32 %26 to i64
  %30 = getelementptr inbounds nuw %struct.Scl_Item_t_, ptr %28, i64 %29
  %.not = icmp eq ptr %28, null
  br i1 %.not, label %.loopexit, label %12, !llvm.loop !51

.loopexit:                                        ; preds = %Scl_LibertyCompare.exit.thread, %Scl_LibertyItem.exit11, %2, %Scl_LibertyItem.exit, %20
  %.09 = phi i32 [ %24, %20 ], [ 0, %Scl_LibertyItem.exit ], [ 0, %2 ], [ 0, %Scl_LibertyItem.exit11 ], [ 0, %Scl_LibertyCompare.exit.thread ]
  ret i32 %.09
}